target datalayout = "e-m:e-p270:32:32-p271:32:32-p272:64:64-i64:64-i128:128-f80:128-n8:16:32:64-S128"
target triple = "x86_64-pc-linux-gnu"

%struct.VP8LBitReader = type { i64, ptr, i64, i64, i32, i32 }
%struct.HuffmanTables = type { %struct.HuffmanTablesSegment, ptr }
%struct.HuffmanTablesSegment = type { ptr, ptr, ptr, i32 }
%struct.VP8LDecoder = type { i32, i32, ptr, ptr, ptr, ptr, %struct.VP8LBitReader, i32, %struct.VP8LBitReader, i32, i32, i32, i32, i32, i32, %struct.VP8LMetadata, i32, [4 x %struct.VP8LTransform], i32, ptr, ptr }
%struct.VP8LMetadata = type { i32, %struct.VP8LColorCache, %struct.VP8LColorCache, i32, i32, i32, ptr, i32, ptr, %struct.HuffmanTables }
%struct.VP8LColorCache = type { ptr, i32, i32 }
%struct.VP8LTransform = type { i32, i32, i32, i32, ptr }

; Function Attrs: nounwind uwtable
define hidden ptr @VP8LNew() #0 {
  %1 = alloca ptr, align 8
  %2 = alloca ptr, align 8
  %3 = alloca i32, align 4
  call void @llvm.lifetime.start.p0(i64 8, ptr %2) #6
  %4 = call ptr @WebPSafeCalloc(i64 noundef 1, i64 noundef 400)
  store ptr %4, ptr %2, align 8, !tbaa !18
  %5 = load ptr, ptr %2, align 8, !tbaa !18
  %6 = icmp eq ptr %5, null
  br i1 %6, label %7, label %8

7:                                                ; preds = %0
  store ptr null, ptr %1, align 8
  store i32 1, ptr %3, align 4
  br label %14

8:                                                ; preds = %0
  %9 = load ptr, ptr %2, align 8, !tbaa !18
  %10 = getelementptr inbounds nuw %struct.VP8LDecoder, ptr %9, i32 0, i32 0
  store i32 0, ptr %10, align 8, !tbaa !46
  %11 = load ptr, ptr %2, align 8, !tbaa !18
  %12 = getelementptr inbounds nuw %struct.VP8LDecoder, ptr %11, i32 0, i32 1
  store i32 2, ptr %12, align 4, !tbaa !59
  call void @VP8LDspInit()
  %13 = load ptr, ptr %2, align 8, !tbaa !18
  store ptr %13, ptr %1, align 8
  store i32 1, ptr %3, align 4
  br label %14

14:                                               ; preds = %8, %7
  call void @llvm.lifetime.end.p0(i64 8, ptr %2) #6
  %15 = load ptr, ptr %1, align 8
  ret ptr %15
}