; Function Attrs: nounwind uwtable
define hidden ptr @VP8LNew() local_unnamed_addr #1 {
  %1 = tail call ptr @WebPSafeCalloc(i64 noundef 1, i64 noundef 400) #8
  %2 = icmp eq ptr %1, null
  br i1 %2, label %5, label %3

3:                                                ; preds = %0
  store i32 0, ptr %1, align 8, !tbaa !13
  %4 = getelementptr inbounds nuw i8, ptr %1, i64 4
  store i32 2, ptr %4, align 4, !tbaa !53
  tail call void @VP8LDspInit() #8
  br label %5

5:                                                ; preds = %0, %3
  ret ptr %1
}